target datalayout = "e-m:e-p270:32:32-p271:32:32-p272:64:64-i64:64-i128:128-f80:128-n8:16:32:64-S128"
target triple = "x86_64-pc-linux-gnu"

%struct.TupleDescData = type { i32, i32, i32, i32, ptr, [0 x %struct.CompactAttribute] }
%struct.CompactAttribute = type { i32, i16, i8, i8, i8, i8, i8, i8, i8 }
%struct.HeapTupleData = type { i32, %struct.ItemPointerData, i32, ptr }
%struct.ItemPointerData = type { %struct.BlockIdData, i16 }
%struct.BlockIdData = type { i16, i16 }
%struct.HeapTupleHeaderData = type { %union.anon, %struct.ItemPointerData, i16, i16, i8, [0 x i8] }
%union.anon = type { %struct.HeapTupleFields }
%struct.HeapTupleFields = type { i32, i32, %union.anon.0 }
%union.anon.0 = type { i32 }
%struct.varattrib_1b = type { i8, [0 x i8] }

; Function Attrs: inlinehint nounwind uwtable
define internal i64 @PointerGetDatum(ptr noundef %0) #3 {
  %2 = alloca ptr, align 8
  store ptr %0, ptr %2, align 8
  %3 = load ptr, ptr %2, align 8
  %4 = ptrtoint ptr %3 to i64
  ret i64 %4
}

; Function Attrs: inlinehint nounwind uwtable
define internal ptr @DatumGetPointer(i64 noundef %0) #3 {
  %2 = alloca i64, align 8
  store i64 %0, ptr %2, align 8
  %3 = load i64, ptr %2, align 8
  %4 = inttoptr i64 %3 to ptr
  ret ptr %4
}

; Function Attrs: inlinehint nounwind uwtable
define internal ptr @TupleDescCompactAttr(ptr noundef %0, i32 noundef %1) #3 {
  %3 = alloca ptr, align 8
  %4 = alloca i32, align 4
  %5 = alloca ptr, align 8
  store ptr %0, ptr %3, align 8
  store i32 %1, ptr %4, align 4
  call void @llvm.lifetime.start.p0(i64 8, ptr %5) #7
  %6 = load ptr, ptr %3, align 8
  %7 = getelementptr inbounds nuw %struct.TupleDescData, ptr %6, i32 0, i32 5
  %8 = load i32, ptr %4, align 4
  %9 = sext i32 %8 to i64
  %10 = getelementptr inbounds [0 x %struct.CompactAttribute], ptr %7, i64 0, i64 %9
  store ptr %10, ptr %5, align 8
  %11 = load ptr, ptr %5, align 8
  call void @llvm.lifetime.end.p0(i64 8, ptr %5) #7
  ret ptr %11
}

; Function Attrs: nounwind uwtable
define dso_local ptr @toast_flatten_tuple(ptr noundef %0, ptr noundef %1) #0 {
  %3 = alloca ptr, align 8
  %4 = alloca ptr, align 8
  %5 = alloca ptr, align 8
  %6 = alloca i32, align 4
  %7 = alloca i32, align 4
  %8 = alloca [1664 x i64], align 16
  %9 = alloca [1664 x i8], align 16
  %10 = alloca [1664 x i8], align 16
  %11 = alloca ptr, align 8
  store ptr %0, ptr %3, align 8
  store ptr %1, ptr %4, align 8
  call void @llvm.lifetime.start.p0(i64 8, ptr %5) #7
  call void @llvm.lifetime.start.p0(i64 4, ptr %6) #7
  %12 = load ptr, ptr %4, align 8
  %13 = getelementptr inbounds nuw %struct.TupleDescData, ptr %12, i32 0, i32 0
  %14 = load i32, ptr %13, align 8
  store i32 %14, ptr %6, align 4
  call void @llvm.lifetime.start.p0(i64 4, ptr %7) #7
  call void @llvm.lifetime.start.p0(i64 13312, ptr %8) #7
  call void @llvm.lifetime.start.p0(i64 1664, ptr %9) #7
  call void @llvm.lifetime.start.p0(i64 1664, ptr %10) #7
  %15 = load ptr, ptr %3, align 8
  %16 = load ptr, ptr %4, align 8
  %17 = getelementptr inbounds [1664 x i64], ptr %8, i64 0, i64 0
  %18 = getelementptr inbounds [1664 x i8], ptr %9, i64 0, i64 0
  call void @heap_deform_tuple(ptr noundef %15, ptr noundef %16, ptr noundef %17, ptr noundef %18)
  %19 = getelementptr inbounds [1664 x i8], ptr %10, i64 0, i64 0
  %20 = load i32, ptr %6, align 4
  %21 = sext i32 %20 to i64
  %22 = mul i64 %21, 1
  call void @llvm.memset.p0.i64(ptr align 16 %19, i8 0, i64 %22, i1 false)
  store i32 0, ptr %7, align 4
  br label %23

23:                                               ; preds = %65, %2
  %24 = load i32, ptr %7, align 4
  %25 = load i32, ptr %6, align 4
  %26 = icmp slt i32 %24, %25
  br i1 %26, label %27, label %68

27:                                               ; preds = %23
  %28 = load i32, ptr %7, align 4
  %29 = sext i32 %28 to i64
  %30 = getelementptr inbounds [1664 x i8], ptr %9, i64 0, i64 %29
  %31 = load i8, ptr %30, align 1, !range !4, !noundef !5
  %32 = trunc i8 %31 to i1
  br i1 %32, label %64, label %33

33:                                               ; preds = %27
  %34 = load ptr, ptr %4, align 8
  %35 = load i32, ptr %7, align 4
  %36 = call ptr @TupleDescCompactAttr(ptr noundef %34, i32 noundef %35)
  %37 = getelementptr inbounds nuw %struct.CompactAttribute, ptr %36, i32 0, i32 1
  %38 = load i16, ptr %37, align 4
  %39 = sext i16 %38 to i32
  %40 = icmp eq i32 %39, -1
  br i1 %40, label %41, label %64

41:                                               ; preds = %33
  call void @llvm.lifetime.start.p0(i64 8, ptr %11) #7
  %42 = load i32, ptr %7, align 4
  %43 = sext i32 %42 to i64
  %44 = getelementptr inbounds [1664 x i64], ptr %8, i64 0, i64 %43
  %45 = load i64, ptr %44, align 8
  %46 = call ptr @DatumGetPointer(i64 noundef %45)
  store ptr %46, ptr %11, align 8
  %47 = load ptr, ptr %11, align 8
  %48 = getelementptr inbounds nuw %struct.varattrib_1b, ptr %47, i32 0, i32 0
  %49 = load i8, ptr %48, align 1
  %50 = zext i8 %49 to i32
  %51 = icmp eq i32 %50, 1
  br i1 %51, label %52, label %63

52:                                               ; preds = %41
  %53 = load ptr, ptr %11, align 8
  %54 = call ptr @detoast_external_attr(ptr noundef %53)
  store ptr %54, ptr %11, align 8
  %55 = load ptr, ptr %11, align 8
  %56 = call i64 @PointerGetDatum(ptr noundef %55)
  %57 = load i32, ptr %7, align 4
  %58 = sext i32 %57 to i64
  %59 = getelementptr inbounds [1664 x i64], ptr %8, i64 0, i64 %58
  store i64 %56, ptr %59, align 8
  %60 = load i32, ptr %7, align 4
  %61 = sext i32 %60 to i64
  %62 = getelementptr inbounds [1664 x i8], ptr %10, i64 0, i64 %61
  store i8 1, ptr %62, align 1
  br label %63

63:                                               ; preds = %52, %41
  call void @llvm.lifetime.end.p0(i64 8, ptr %11) #7
  br label %64

64:                                               ; preds = %63, %33, %27
  br label %65

65:                                               ; preds = %64
  %66 = load i32, ptr %7, align 4
  %67 = add i32 %66, 1
  store i32 %67, ptr %7, align 4
  br label %23, !llvm.loop !11

68:                                               ; preds = %23
  %69 = load ptr, ptr %4, align 8
  %70 = getelementptr inbounds [1664 x i64], ptr %8, i64 0, i64 0
  %71 = getelementptr inbounds [1664 x i8], ptr %9, i64 0, i64 0
  %72 = call ptr @heap_form_tuple(ptr noundef %69, ptr noundef %70, ptr noundef %71)
  store ptr %72, ptr %5, align 8
  %73 = load ptr, ptr %5, align 8
  %74 = getelementptr inbounds nuw %struct.HeapTupleData, ptr %73, i32 0, i32 1
  %75 = load ptr, ptr %3, align 8
  %76 = getelementptr inbounds nuw %struct.HeapTupleData, ptr %75, i32 0, i32 1
  call void @llvm.memcpy.p0.p0.i64(ptr align 4 %74, ptr align 4 %76, i64 6, i1 false)
  %77 = load ptr, ptr %3, align 8
  %78 = getelementptr inbounds nuw %struct.HeapTupleData, ptr %77, i32 0, i32 2
  %79 = load i32, ptr %78, align 4
  %80 = load ptr, ptr %5, align 8
  %81 = getelementptr inbounds nuw %struct.HeapTupleData, ptr %80, i32 0, i32 2
  store i32 %79, ptr %81, align 4
  %82 = load ptr, ptr %5, align 8
  %83 = getelementptr inbounds nuw %struct.HeapTupleData, ptr %82, i32 0, i32 3
  %84 = load ptr, ptr %83, align 8
  %85 = getelementptr inbounds nuw %struct.HeapTupleHeaderData, ptr %84, i32 0, i32 0
  %86 = load ptr, ptr %3, align 8
  %87 = getelementptr inbounds nuw %struct.HeapTupleData, ptr %86, i32 0, i32 3
  %88 = load ptr, ptr %87, align 8
  %89 = getelementptr inbounds nuw %struct.HeapTupleHeaderData, ptr %88, i32 0, i32 0
  call void @llvm.memcpy.p0.p0.i64(ptr align 4 %85, ptr align 4 %89, i64 12, i1 false)
  %90 = load ptr, ptr %5, align 8
  %91 = getelementptr inbounds nuw %struct.HeapTupleData, ptr %90, i32 0, i32 3
  %92 = load ptr, ptr %91, align 8
  %93 = getelementptr inbounds nuw %struct.HeapTupleHeaderData, ptr %92, i32 0, i32 1
  %94 = load ptr, ptr %3, align 8
  %95 = getelementptr inbounds nuw %struct.HeapTupleData, ptr %94, i32 0, i32 3
  %96 = load ptr, ptr %95, align 8
  %97 = getelementptr inbounds nuw %struct.HeapTupleHeaderData, ptr %96, i32 0, i32 1
  call void @llvm.memcpy.p0.p0.i64(ptr align 4 %93, ptr align 4 %97, i64 6, i1 false)
  %98 = load ptr, ptr %5, align 8
  %99 = getelementptr inbounds nuw %struct.HeapTupleData, ptr %98, i32 0, i32 3
  %100 = load ptr, ptr %99, align 8
  %101 = getelementptr inbounds nuw %struct.HeapTupleHeaderData, ptr %100, i32 0, i32 3
  %102 = load i16, ptr %101, align 4
  %103 = zext i16 %102 to i32
  %104 = and i32 %103, -65521
  %105 = trunc i32 %104 to i16
  store i16 %105, ptr %101, align 4
  %106 = load ptr, ptr %3, align 8
  %107 = getelementptr inbounds nuw %struct.HeapTupleData, ptr %106, i32 0, i32 3
  %108 = load ptr, ptr %107, align 8
  %109 = getelementptr inbounds nuw %struct.HeapTupleHeaderData, ptr %108, i32 0, i32 3
  %110 = load i16, ptr %109, align 4
  %111 = zext i16 %110 to i32
  %112 = and i32 %111, 65520
  %113 = load ptr, ptr %5, align 8
  %114 = getelementptr inbounds nuw %struct.HeapTupleData, ptr %113, i32 0, i32 3
  %115 = load ptr, ptr %114, align 8
  %116 = getelementptr inbounds nuw %struct.HeapTupleHeaderData, ptr %115, i32 0, i32 3
  %117 = load i16, ptr %116, align 4
  %118 = zext i16 %117 to i32
  %119 = or i32 %118, %112
  %120 = trunc i32 %119 to i16
  store i16 %120, ptr %116, align 4
  %121 = load ptr, ptr %5, align 8
  %122 = getelementptr inbounds nuw %struct.HeapTupleData, ptr %121, i32 0, i32 3
  %123 = load ptr, ptr %122, align 8
  %124 = getelementptr inbounds nuw %struct.HeapTupleHeaderData, ptr %123, i32 0, i32 2
  %125 = load i16, ptr %124, align 2
  %126 = zext i16 %125 to i32
  %127 = and i32 %126, -57345
  %128 = trunc i32 %127 to i16
  store i16 %128, ptr %124, align 2
  %129 = load ptr, ptr %3, align 8
  %130 = getelementptr inbounds nuw %struct.HeapTupleData, ptr %129, i32 0, i32 3
  %131 = load ptr, ptr %130, align 8
  %132 = getelementptr inbounds nuw %struct.HeapTupleHeaderData, ptr %131, i32 0, i32 2
  %133 = load i16, ptr %132, align 2
  %134 = zext i16 %133 to i32
  %135 = and i32 %134, 57344
  %136 = load ptr, ptr %5, align 8
  %137 = getelementptr inbounds nuw %struct.HeapTupleData, ptr %136, i32 0, i32 3
  %138 = load ptr, ptr %137, align 8
  %139 = getelementptr inbounds nuw %struct.HeapTupleHeaderData, ptr %138, i32 0, i32 2
  %140 = load i16, ptr %139, align 2
  %141 = zext i16 %140 to i32
  %142 = or i32 %141, %135
  %143 = trunc i32 %142 to i16
  store i16 %143, ptr %139, align 2
  store i32 0, ptr %7, align 4
  br label %144

144:                                              ; preds = %161, %68
  %145 = load i32, ptr %7, align 4
  %146 = load i32, ptr %6, align 4
  %147 = icmp slt i32 %145, %146
  br i1 %147, label %148, label %164

148:                                              ; preds = %144
  %149 = load i32, ptr %7, align 4
  %150 = sext i32 %149 to i64
  %151 = getelementptr inbounds [1664 x i8], ptr %10, i64 0, i64 %150
  %152 = load i8, ptr %151, align 1, !range !4, !noundef !5
  %153 = trunc i8 %152 to i1
  br i1 %153, label %154, label %160

154:                                              ; preds = %148
  %155 = load i32, ptr %7, align 4
  %156 = sext i32 %155 to i64
  %157 = getelementptr inbounds [1664 x i64], ptr %8, i64 0, i64 %156
  %158 = load i64, ptr %157, align 8
  %159 = call ptr @DatumGetPointer(i64 noundef %158)
  call void @pfree(ptr noundef %159)
  br label %160

160:                                              ; preds = %154, %148
  br label %161

161:                                              ; preds = %160
  %162 = load i32, ptr %7, align 4
  %163 = add i32 %162, 1
  store i32 %163, ptr %7, align 4
  br label %144, !llvm.loop !12

164:                                              ; preds = %144
  %165 = load ptr, ptr %5, align 8
  call void @llvm.lifetime.end.p0(i64 1664, ptr %10) #7
  call void @llvm.lifetime.end.p0(i64 1664, ptr %9) #7
  call void @llvm.lifetime.end.p0(i64 13312, ptr %8) #7
  call void @llvm.lifetime.end.p0(i64 4, ptr %7) #7
  call void @llvm.lifetime.end.p0(i64 4, ptr %6) #7
  call void @llvm.lifetime.end.p0(i64 8, ptr %5) #7
  ret ptr %165
}