; Function Attrs: nounwind uwtable
define dso_local ptr @toast_flatten_tuple(ptr noundef %0, ptr noundef %1) local_unnamed_addr #0 {
  %3 = alloca [1664 x i64], align 16
  %4 = alloca [1664 x i8], align 16
  %5 = alloca [1664 x i8], align 16
  %6 = load i32, ptr %1, align 8
  call void @llvm.lifetime.start.p0(i64 13312, ptr nonnull %3) #8
  call void @llvm.lifetime.start.p0(i64 1664, ptr nonnull %4) #8
  call void @llvm.lifetime.start.p0(i64 1664, ptr nonnull %5) #8
  call void @heap_deform_tuple(ptr noundef %0, ptr noundef nonnull %1, ptr noundef nonnull %3, ptr noundef nonnull %4) #8
  %7 = sext i32 %6 to i64
  call void @llvm.memset.p0.i64(ptr nonnull align 16 %5, i8 0, i64 %7, i1 false)
  %8 = icmp sgt i32 %6, 0
  br i1 %8, label %.lr.ph, label %._crit_edge

.lr.ph:                                           ; preds = %2
  %9 = getelementptr i8, ptr %1, i64 28
  %wide.trip.count = zext nneg i32 %6 to i64
  br label %10

10:                                               ; preds = %.lr.ph, %28
  %indvars.iv = phi i64 [ 0, %.lr.ph ], [ %indvars.iv.next, %28 ]
  %11 = getelementptr inbounds nuw [1664 x i8], ptr %4, i64 0, i64 %indvars.iv
  %12 = load i8, ptr %11, align 1, !range !4, !noundef !5
  %13 = trunc nuw i8 %12 to i1
  br i1 %13, label %28, label %14

14:                                               ; preds = %10
  %.idx = shl nuw nsw i64 %indvars.iv, 4
  %15 = getelementptr i8, ptr %9, i64 %.idx
  %16 = load i16, ptr %15, align 4
  %17 = icmp eq i16 %16, -1
  br i1 %17, label %18, label %28

18:                                               ; preds = %14
  %19 = getelementptr inbounds nuw [1664 x i64], ptr %3, i64 0, i64 %indvars.iv
  %20 = load i64, ptr %19, align 8
  %21 = inttoptr i64 %20 to ptr
  %22 = load i8, ptr %21, align 1
  %23 = icmp eq i8 %22, 1
  br i1 %23, label %24, label %28

24:                                               ; preds = %18
  %25 = call ptr @detoast_external_attr(ptr noundef nonnull %21) #8
  %26 = ptrtoint ptr %25 to i64
  store i64 %26, ptr %19, align 8
  %27 = getelementptr inbounds nuw [1664 x i8], ptr %5, i64 0, i64 %indvars.iv
  store i8 1, ptr %27, align 1
  br label %28

28:                                               ; preds = %18, %24, %10, %14
  %indvars.iv.next = add nuw nsw i64 %indvars.iv, 1
  %exitcond.not = icmp eq i64 %indvars.iv.next, %wide.trip.count
  br i1 %exitcond.not, label %._crit_edge, label %10, !llvm.loop !6

._crit_edge:                                      ; preds = %28, %2
  %29 = call ptr @heap_form_tuple(ptr noundef nonnull %1, ptr noundef nonnull %3, ptr noundef nonnull %4) #8
  %30 = getelementptr inbounds nuw i8, ptr %29, i64 4
  %31 = getelementptr inbounds nuw i8, ptr %0, i64 4
  call void @llvm.memcpy.p0.p0.i64(ptr noundef nonnull align 4 dereferenceable(6) %30, ptr noundef nonnull align 4 dereferenceable(6) %31, i64 6, i1 false)
  %32 = getelementptr inbounds nuw i8, ptr %0, i64 12
  %33 = load i32, ptr %32, align 4
  %34 = getelementptr inbounds nuw i8, ptr %29, i64 12
  store i32 %33, ptr %34, align 4
  %35 = getelementptr inbounds nuw i8, ptr %29, i64 16
  %36 = load ptr, ptr %35, align 8
  %37 = getelementptr inbounds nuw i8, ptr %0, i64 16
  %38 = load ptr, ptr %37, align 8
  call void @llvm.memcpy.p0.p0.i64(ptr noundef nonnull align 4 dereferenceable(12) %36, ptr noundef nonnull align 4 dereferenceable(12) %38, i64 12, i1 false)
  %39 = load ptr, ptr %35, align 8
  %40 = getelementptr inbounds nuw i8, ptr %39, i64 12
  %41 = load ptr, ptr %37, align 8
  %42 = getelementptr inbounds nuw i8, ptr %41, i64 12
  call void @llvm.memcpy.p0.p0.i64(ptr noundef nonnull align 4 dereferenceable(6) %40, ptr noundef nonnull align 4 dereferenceable(6) %42, i64 6, i1 false)
  %43 = load ptr, ptr %35, align 8
  %44 = getelementptr inbounds nuw i8, ptr %43, i64 20
  %45 = load i16, ptr %44, align 4
  %46 = and i16 %45, 15
  store i16 %46, ptr %44, align 4
  %47 = load ptr, ptr %37, align 8
  %48 = getelementptr inbounds nuw i8, ptr %47, i64 20
  %49 = load i16, ptr %48, align 4
  %50 = and i16 %49, -16
  %51 = load ptr, ptr %35, align 8
  %52 = getelementptr inbounds nuw i8, ptr %51, i64 20
  %53 = load i16, ptr %52, align 4
  %54 = or i16 %53, %50
  store i16 %54, ptr %52, align 4
  %55 = load ptr, ptr %35, align 8
  %56 = getelementptr inbounds nuw i8, ptr %55, i64 18
  %57 = load i16, ptr %56, align 2
  %58 = and i16 %57, 8191
  store i16 %58, ptr %56, align 2
  %59 = load ptr, ptr %37, align 8
  %60 = getelementptr inbounds nuw i8, ptr %59, i64 18
  %61 = load i16, ptr %60, align 2
  %62 = and i16 %61, -8192
  %63 = load ptr, ptr %35, align 8
  %64 = getelementptr inbounds nuw i8, ptr %63, i64 18
  %65 = load i16, ptr %64, align 2
  %66 = or i16 %65, %62
  store i16 %66, ptr %64, align 2
  br i1 %8, label %.lr.ph40.preheader, label %._crit_edge41

.lr.ph40.preheader:                               ; preds = %._crit_edge
  %wide.trip.count46 = zext nneg i32 %6 to i64
  br label %.lr.ph40

.lr.ph40:                                         ; preds = %.lr.ph40.preheader, %74
  %indvars.iv43 = phi i64 [ 0, %.lr.ph40.preheader ], [ %indvars.iv.next44, %74 ]
  %67 = getelementptr inbounds nuw [1664 x i8], ptr %5, i64 0, i64 %indvars.iv43
  %68 = load i8, ptr %67, align 1, !range !4, !noundef !5
  %69 = trunc nuw i8 %68 to i1
  br i1 %69, label %70, label %74

70:                                               ; preds = %.lr.ph40
  %71 = getelementptr inbounds nuw [1664 x i64], ptr %3, i64 0, i64 %indvars.iv43
  %72 = load i64, ptr %71, align 8
  %73 = inttoptr i64 %72 to ptr
  call void @pfree(ptr noundef %73) #8
  br label %74

74:                                               ; preds = %.lr.ph40, %70
  %indvars.iv.next44 = add nuw nsw i64 %indvars.iv43, 1
  %exitcond47.not = icmp eq i64 %indvars.iv.next44, %wide.trip.count46
  br i1 %exitcond47.not, label %._crit_edge41, label %.lr.ph40, !llvm.loop !8

._crit_edge41:                                    ; preds = %74, %._crit_edge
  call void @llvm.lifetime.end.p0(i64 1664, ptr nonnull %5) #8
  call void @llvm.lifetime.end.p0(i64 1664, ptr nonnull %4) #8
  call void @llvm.lifetime.end.p0(i64 13312, ptr nonnull %3) #8
  ret ptr %29
}